; Function Attrs: mustprogress uwtable
define hidden void @_ZN11tbv_manager10complementERK3tbvR10ptr_vectorIS0_E(ptr noundef nonnull align 8 dereferenceable(552) %0, ptr noundef nonnull align 4 dereferenceable(4) %1, ptr noundef nonnull align 8 dereferenceable(8) %2) local_unnamed_addr #5 align 2 {
  %4 = getelementptr inbounds nuw i8, ptr %0, i64 520
  %5 = load i32, ptr %4, align 8, !tbaa !16
  %6 = lshr i32 %5, 1
  %.not = icmp ult i32 %5, 2
  br i1 %.not, label %._crit_edge, label %.lr.ph

._crit_edge:                                      ; preds = %61, %3
  ret void

.lr.ph:                                           ; preds = %3, %61
  %.016 = phi i32 [ %62, %61 ], [ 0, %3 ]
  %7 = shl nuw i32 %.016, 1
  %8 = lshr i32 %.016, 4
  %9 = zext nneg i32 %8 to i64
  %10 = getelementptr inbounds nuw [1 x i32], ptr %1, i64 0, i64 %9
  %11 = load i32, ptr %10, align 4, !tbaa !17
  %12 = and i32 %7, 30
  %13 = shl nuw nsw i32 1, %12
  %14 = and i32 %11, %13
  %.not.i = icmp eq i32 %14, 0
  %15 = select i1 %.not.i, i32 0, i32 2
  %16 = shl nuw i32 2, %12
  %17 = and i32 %11, %16
  %18 = icmp ne i32 %17, 0
  %19 = zext i1 %18 to i32
  %20 = or disjoint i32 %15, %19
  switch i32 %20, label %61 [
    i32 1, label %21
    i32 2, label %39
  ]

21:                                               ; preds = %.lr.ph
  %22 = tail call noundef ptr @_ZN24fixed_bit_vector_manager8allocateEv(ptr noundef nonnull align 8 dereferenceable(552) %0)
  %23 = tail call noundef nonnull align 4 dereferenceable(4) ptr @_ZNK24fixed_bit_vector_manager5fill0ER16fixed_bit_vector(ptr noundef nonnull align 8 dereferenceable(552) %0, ptr noundef nonnull align 4 dereferenceable(4) %22)
  tail call void @_ZNK24fixed_bit_vector_manager4copyER16fixed_bit_vectorRKS0_(ptr noundef nonnull align 8 dereferenceable(552) %0, ptr noundef nonnull align 4 dereferenceable(4) %22, ptr noundef nonnull align 4 dereferenceable(4) %1)
  %24 = getelementptr inbounds nuw [1 x i32], ptr %22, i64 0, i64 %9
  %25 = load i32, ptr %24, align 4, !tbaa !17
  %26 = xor i32 %25, -1
  %27 = and i32 %13, %26
  %28 = and i32 %25, %16
  %29 = or disjoint i32 %27, %28
  %30 = xor i32 %29, %25
  store i32 %30, ptr %24, align 4, !tbaa !17
  %31 = load ptr, ptr %2, align 8, !tbaa !3
  %32 = icmp eq ptr %31, null
  br i1 %32, label %.sink.split.sink.split, label %33

33:                                               ; preds = %21
  %34 = getelementptr inbounds i8, ptr %31, i64 -4
  %35 = load i32, ptr %34, align 4, !tbaa !17
  %36 = getelementptr inbounds i8, ptr %31, i64 -8
  %37 = load i32, ptr %36, align 4, !tbaa !17
  %38 = icmp eq i32 %35, %37
  br i1 %38, label %.sink.split.sink.split, label %.sink.split

39:                                               ; preds = %.lr.ph
  %40 = tail call noundef ptr @_ZN24fixed_bit_vector_manager8allocateEv(ptr noundef nonnull align 8 dereferenceable(552) %0)
  %41 = tail call noundef nonnull align 4 dereferenceable(4) ptr @_ZNK24fixed_bit_vector_manager5fill0ER16fixed_bit_vector(ptr noundef nonnull align 8 dereferenceable(552) %0, ptr noundef nonnull align 4 dereferenceable(4) %40)
  tail call void @_ZNK24fixed_bit_vector_manager4copyER16fixed_bit_vectorRKS0_(ptr noundef nonnull align 8 dereferenceable(552) %0, ptr noundef nonnull align 4 dereferenceable(4) %40, ptr noundef nonnull align 4 dereferenceable(4) %1)
  %42 = getelementptr inbounds nuw [1 x i32], ptr %40, i64 0, i64 %9
  %43 = load i32, ptr %42, align 4, !tbaa !17
  %44 = and i32 %43, %13
  %45 = xor i32 %43, -1
  %46 = and i32 %16, %45
  %47 = or disjoint i32 %44, %46
  %48 = xor i32 %47, %43
  store i32 %48, ptr %42, align 4, !tbaa !17
  %49 = load ptr, ptr %2, align 8, !tbaa !3
  %50 = icmp eq ptr %49, null
  br i1 %50, label %.sink.split.sink.split, label %51

51:                                               ; preds = %39
  %52 = getelementptr inbounds i8, ptr %49, i64 -4
  %53 = load i32, ptr %52, align 4, !tbaa !17
  %54 = getelementptr inbounds i8, ptr %49, i64 -8
  %55 = load i32, ptr %54, align 4, !tbaa !17
  %56 = icmp eq i32 %53, %55
  br i1 %56, label %.sink.split.sink.split, label %.sink.split

.sink.split.sink.split:                           ; preds = %39, %51, %21, %33
  %.sink.ph = phi ptr [ %22, %33 ], [ %22, %21 ], [ %40, %51 ], [ %40, %39 ]
  tail call void @_ZN6vectorIP3tbvLb0EjE13expand_vectorEv(ptr noundef nonnull align 8 dereferenceable(8) %2)
  %.pre.i11 = load ptr, ptr %2, align 8, !tbaa !3
  %.phi.trans.insert.i12 = getelementptr inbounds i8, ptr %.pre.i11, i64 -4
  %.pre2.i13 = load i32, ptr %.phi.trans.insert.i12, align 4, !tbaa !17
  br label %.sink.split

.sink.split:                                      ; preds = %.sink.split.sink.split, %51, %33
  %.sink23 = phi ptr [ %31, %33 ], [ %49, %51 ], [ %.pre.i11, %.sink.split.sink.split ]
  %.sink22 = phi i32 [ %35, %33 ], [ %53, %51 ], [ %.pre2.i13, %.sink.split.sink.split ]
  %.sink = phi ptr [ %22, %33 ], [ %40, %51 ], [ %.sink.ph, %.sink.split.sink.split ]
  %57 = getelementptr inbounds i8, ptr %.sink23, i64 -4
  %58 = zext i32 %.sink22 to i64
  %59 = getelementptr inbounds nuw ptr, ptr %.sink23, i64 %58
  store ptr %.sink, ptr %59, align 8, !tbaa !43
  %60 = add i32 %.sink22, 1
  store i32 %60, ptr %57, align 4, !tbaa !17
  br label %61

61:                                               ; preds = %.sink.split, %.lr.ph
  %62 = add nuw nsw i32 %.016, 1
  %exitcond.not = icmp eq i32 %62, %6
  br i1 %exitcond.not, label %._crit_edge, label %.lr.ph, !llvm.loop !45
}